; Function Attrs: nounwind uwtable
define dso_local ptr @PyObject_CallOneArg(ptr noundef %0, ptr noundef %1) local_unnamed_addr #0 {
  %3 = alloca [2 x ptr], align 16
  call void @llvm.lifetime.start.p0(i64 16, ptr nonnull %3) #10
  %4 = getelementptr inbounds nuw i8, ptr %3, i64 8
  store ptr %1, ptr %4, align 8, !tbaa !23
  %5 = tail call align 8 ptr @llvm.threadlocal.address.p0(ptr align 8 @_Py_tss_tstate)
  %6 = load ptr, ptr %5, align 8, !tbaa !25
  %7 = getelementptr i8, ptr %0, i64 8
  %.val.i.i = load ptr, ptr %7, align 8, !tbaa !20
  %8 = getelementptr i8, ptr %.val.i.i, i64 168
  %.val6.i.i = load i64, ptr %8, align 8, !tbaa !34
  %9 = and i64 %.val6.i.i, 2048
  %.not.i.i = icmp eq i64 %9, 0
  br i1 %.not.i.i, label %_PyVectorcall_FunctionInline.exit.thread.i, label %_PyVectorcall_FunctionInline.exit.i

_PyVectorcall_FunctionInline.exit.i:              ; preds = %2
  %10 = getelementptr inbounds nuw i8, ptr %.val.i.i, i64 56
  %11 = load i64, ptr %10, align 8, !tbaa !35
  %12 = getelementptr i8, ptr %0, i64 %11
  %.0.copyload.i.i = load ptr, ptr %12, align 1
  %13 = icmp eq ptr %.0.copyload.i.i, null
  br i1 %13, label %_PyVectorcall_FunctionInline.exit.thread.i, label %15

_PyVectorcall_FunctionInline.exit.thread.i:       ; preds = %_PyVectorcall_FunctionInline.exit.i, %2
  %14 = call ptr @_PyObject_MakeTpCall(ptr noundef %6, ptr noundef nonnull %0, ptr noundef nonnull %4, i64 noundef 1, ptr noundef null)
  br label %_PyObject_VectorcallTstate.exit

15:                                               ; preds = %_PyVectorcall_FunctionInline.exit.i
  %16 = call ptr %.0.copyload.i.i(ptr noundef nonnull %0, ptr noundef nonnull %4, i64 noundef -9223372036854775807, ptr noundef null) #10
  %17 = icmp eq ptr %16, null
  %18 = getelementptr i8, ptr %6, i64 112
  %.val.i = load ptr, ptr %18, align 8, !tbaa !4
  %19 = icmp eq ptr %.val.i, null
  br i1 %17, label %20, label %25

20:                                               ; preds = %15
  br i1 %19, label %22, label %_PyErr_Occurred.exit.i

_PyErr_Occurred.exit.i:                           ; preds = %20
  %21 = getelementptr i8, ptr %.val.i, i64 8
  %.val.i.i7 = load ptr, ptr %21, align 8, !tbaa !20
  %.not19.i = icmp eq ptr %.val.i.i7, null
  br i1 %.not19.i, label %22, label %_PyObject_VectorcallTstate.exit

22:                                               ; preds = %20, %_PyErr_Occurred.exit.i
  %23 = load ptr, ptr @PyExc_SystemError, align 8, !tbaa !23
  %24 = call ptr (ptr, ptr, ptr, ...) @_PyErr_Format(ptr noundef nonnull %6, ptr noundef %23, ptr noundef nonnull @.str, ptr noundef nonnull %0) #10
  br label %_PyObject_VectorcallTstate.exit

25:                                               ; preds = %15
  br i1 %19, label %_PyObject_VectorcallTstate.exit, label %_PyErr_Occurred.exit24.i

_PyErr_Occurred.exit24.i:                         ; preds = %25
  %26 = getelementptr i8, ptr %.val.i, i64 8
  %.val.i22.i = load ptr, ptr %26, align 8, !tbaa !20
  %.not.i = icmp eq ptr %.val.i22.i, null
  br i1 %.not.i, label %_PyObject_VectorcallTstate.exit, label %27

27:                                               ; preds = %_PyErr_Occurred.exit24.i
  %28 = load i32, ptr %16, align 8, !tbaa !24
  %.not.i.i5 = icmp sgt i32 %28, -1
  br i1 %.not.i.i5, label %29, label %33

29:                                               ; preds = %27
  %30 = add nsw i32 %28, -1
  store i32 %30, ptr %16, align 8, !tbaa !24
  %31 = icmp eq i32 %30, 0
  br i1 %31, label %32, label %33

32:                                               ; preds = %29
  call void @_Py_Dealloc(ptr noundef nonnull %16) #10
  br label %33

33:                                               ; preds = %27, %29, %32
  %34 = load ptr, ptr @PyExc_SystemError, align 8, !tbaa !23
  %35 = call ptr (ptr, ptr, ptr, ...) @_PyErr_FormatFromCauseTstate(ptr noundef nonnull %6, ptr noundef %34, ptr noundef nonnull @.str.2, ptr noundef nonnull %0) #10
  br label %_PyObject_VectorcallTstate.exit

_PyObject_VectorcallTstate.exit:                  ; preds = %33, %_PyErr_Occurred.exit24.i, %25, %22, %_PyErr_Occurred.exit.i, %_PyVectorcall_FunctionInline.exit.thread.i
  %.0.i = phi ptr [ %14, %_PyVectorcall_FunctionInline.exit.thread.i ], [ null, %22 ], [ null, %33 ], [ %16, %_PyErr_Occurred.exit24.i ], [ null, %_PyErr_Occurred.exit.i ], [ %16, %25 ]
  call void @llvm.lifetime.end.p0(i64 16, ptr nonnull %3) #10
  ret ptr %.0.i
}